target datalayout = "e-m:e-p270:32:32-p271:32:32-p272:64:64-i64:64-i128:128-f80:128-n8:16:32:64-S128"
target triple = "x86_64-unknown-linux-gnu"

%"class.grpc_core::GrpcServerAuthzFilter" = type { %"class.grpc_core::ChannelFilter", %"class.grpc_core::RefCountedPtr", %"struct.grpc_core::EvaluateArgs::PerChannelArgs", %"class.grpc_core::RefCountedPtr.0" }
%"class.grpc_core::ChannelFilter" = type { ptr, %"class.std::shared_ptr" }
%"class.std::shared_ptr" = type { %"class.std::__shared_ptr" }
%"class.std::__shared_ptr" = type { ptr, %"class.std::__shared_count" }
%"class.std::__shared_count" = type { ptr }
%"class.grpc_core::RefCountedPtr" = type { ptr }
%"struct.grpc_core::EvaluateArgs::PerChannelArgs" = type { %"class.std::basic_string_view", %"class.std::basic_string_view", %"class.std::vector", %"class.std::vector", %"class.std::basic_string_view", %"class.std::basic_string_view", %"struct.grpc_core::EvaluateArgs::PerChannelArgs::Address", %"struct.grpc_core::EvaluateArgs::PerChannelArgs::Address" }
%"class.std::vector" = type { %"struct.std::_Vector_base" }
%"struct.std::_Vector_base" = type { %"struct.std::_Vector_base<std::basic_string_view<char>, std::allocator<std::basic_string_view<char>>>::_Vector_impl" }
%"struct.std::_Vector_base<std::basic_string_view<char>, std::allocator<std::basic_string_view<char>>>::_Vector_impl" = type { %"struct.std::_Vector_base<std::basic_string_view<char>, std::allocator<std::basic_string_view<char>>>::_Vector_impl_data" }
%"struct.std::_Vector_base<std::basic_string_view<char>, std::allocator<std::basic_string_view<char>>>::_Vector_impl_data" = type { ptr, ptr, ptr }
%"class.std::basic_string_view" = type { i64, ptr }
%"struct.grpc_core::EvaluateArgs::PerChannelArgs::Address" = type <{ %struct.grpc_resolved_address, [4 x i8], %"class.std::__cxx11::basic_string", i32, [4 x i8] }>
%struct.grpc_resolved_address = type { [128 x i8], i32 }
%"class.std::__cxx11::basic_string" = type { %"struct.std::__cxx11::basic_string<char>::_Alloc_hider", i64, %union.anon }
%"struct.std::__cxx11::basic_string<char>::_Alloc_hider" = type { ptr }
%union.anon = type { i64, [8 x i8] }
%"class.grpc_core::RefCountedPtr.0" = type { ptr }
%"class.grpc_core::SourceLocation" = type <{ ptr, i32, [4 x i8] }>

@.str.13 = private unnamed_addr constant [131 x i8] c"generated/home/dtcxzyw/WorkSpace/Projects/compilers/llvm-opt-benchmark/bench/grpc/grpc/src/core/lib/channel/promise_based_filter.h\00", align 1

; Function Attrs: mustprogress nounwind uwtable
define linkonce_odr void @_ZN9grpc_core14SourceLocationC2EPKci(ptr noundef nonnull align 8 dereferenceable(12) %this, ptr noundef %file, i32 noundef %line) unnamed_addr #5 comdat align 2 {
entry:
  %this.addr = alloca ptr, align 8
  %file.addr = alloca ptr, align 8
  %line.addr = alloca i32, align 4
  store ptr %this, ptr %this.addr, align 8
  store ptr %file, ptr %file.addr, align 8
  store i32 %line, ptr %line.addr, align 4
  %this1 = load ptr, ptr %this.addr, align 8
  %file_ = getelementptr inbounds %"class.grpc_core::SourceLocation", ptr %this1, i32 0, i32 0
  %0 = load ptr, ptr %file.addr, align 8
  store ptr %0, ptr %file_, align 8
  %line_ = getelementptr inbounds %"class.grpc_core::SourceLocation", ptr %this1, i32 0, i32 1
  %1 = load i32, ptr %line.addr, align 4
  store i32 %1, ptr %line_, align 8
  ret void
}

; Function Attrs: mustprogress nounwind uwtable
define linkonce_odr void @_ZN9grpc_core13RefCountedPtrI34grpc_authorization_policy_providerEC2EOS2_(ptr noundef nonnull align 8 dereferenceable(8) %this, ptr noundef nonnull align 8 dereferenceable(8) %other) unnamed_addr #5 comdat align 2 {
entry:
  %this.addr = alloca ptr, align 8
  %other.addr = alloca ptr, align 8
  store ptr %this, ptr %this.addr, align 8
  store ptr %other, ptr %other.addr, align 8
  %this1 = load ptr, ptr %this.addr, align 8
  %value_ = getelementptr inbounds %"class.grpc_core::RefCountedPtr.0", ptr %this1, i32 0, i32 0
  store ptr null, ptr %value_, align 8
  %0 = load ptr, ptr %other.addr, align 8
  %value_2 = getelementptr inbounds %"class.grpc_core::RefCountedPtr.0", ptr %0, i32 0, i32 0
  %1 = load ptr, ptr %value_2, align 8
  %value_3 = getelementptr inbounds %"class.grpc_core::RefCountedPtr.0", ptr %this1, i32 0, i32 0
  store ptr %1, ptr %value_3, align 8
  %2 = load ptr, ptr %other.addr, align 8
  %value_4 = getelementptr inbounds %"class.grpc_core::RefCountedPtr.0", ptr %2, i32 0, i32 0
  store ptr null, ptr %value_4, align 8
  ret void
}

; Function Attrs: mustprogress nounwind uwtable
define linkonce_odr noundef ptr @_ZNK9grpc_core13RefCountedPtrI17grpc_auth_contextE3getEv(ptr noundef nonnull align 8 dereferenceable(8) %this) #5 comdat align 2 {
entry:
  %this.addr = alloca ptr, align 8
  store ptr %this, ptr %this.addr, align 8
  %this1 = load ptr, ptr %this.addr, align 8
  %value_ = getelementptr inbounds %"class.grpc_core::RefCountedPtr", ptr %this1, i32 0, i32 0
  %0 = load ptr, ptr %value_, align 8
  ret ptr %0
}

; Function Attrs: mustprogress nounwind uwtable
define linkonce_odr void @_ZN9grpc_core13RefCountedPtrI17grpc_auth_contextEC2EOS2_(ptr noundef nonnull align 8 dereferenceable(8) %this, ptr noundef nonnull align 8 dereferenceable(8) %other) unnamed_addr #5 comdat align 2 {
entry:
  %this.addr = alloca ptr, align 8
  %other.addr = alloca ptr, align 8
  store ptr %this, ptr %this.addr, align 8
  store ptr %other, ptr %other.addr, align 8
  %this1 = load ptr, ptr %this.addr, align 8
  %value_ = getelementptr inbounds %"class.grpc_core::RefCountedPtr", ptr %this1, i32 0, i32 0
  store ptr null, ptr %value_, align 8
  %0 = load ptr, ptr %other.addr, align 8
  %value_2 = getelementptr inbounds %"class.grpc_core::RefCountedPtr", ptr %0, i32 0, i32 0
  %1 = load ptr, ptr %value_2, align 8
  %value_3 = getelementptr inbounds %"class.grpc_core::RefCountedPtr", ptr %this1, i32 0, i32 0
  store ptr %1, ptr %value_3, align 8
  %2 = load ptr, ptr %other.addr, align 8
  %value_4 = getelementptr inbounds %"class.grpc_core::RefCountedPtr", ptr %2, i32 0, i32 0
  store ptr null, ptr %value_4, align 8
  ret void
}

; Function Attrs: mustprogress uwtable
define linkonce_odr void @_ZN9grpc_core13ChannelFilterC2Ev(ptr noundef nonnull align 8 dereferenceable(24) %this) unnamed_addr #4 comdat align 2 {
entry:
  %this.addr = alloca ptr, align 8
  %agg.tmp = alloca %"class.grpc_core::SourceLocation", align 8
  store ptr %this, ptr %this.addr, align 8
  %this1 = load ptr, ptr %this.addr, align 8
  store ptr getelementptr inbounds ({ [8 x ptr] }, ptr @_ZTVN9grpc_core13ChannelFilterE, i32 0, i32 0, i32 2), ptr %this1, align 8
  %event_engine_ = getelementptr inbounds %"class.grpc_core::ChannelFilter", ptr %this1, i32 0, i32 1
  call void @_ZN9grpc_core14SourceLocationC2EPKci(ptr noundef nonnull align 8 dereferenceable(12) %agg.tmp, ptr noundef @.str.13, i32 noundef 76)
  %0 = getelementptr inbounds { ptr, i32 }, ptr %agg.tmp, i32 0, i32 0
  %1 = load ptr, ptr %0, align 8
  %2 = getelementptr inbounds { ptr, i32 }, ptr %agg.tmp, i32 0, i32 1
  %3 = load i32, ptr %2, align 8
  call void @_ZN17grpc_event_engine12experimental21GetDefaultEventEngineEN9grpc_core14SourceLocationE(ptr sret(%"class.std::shared_ptr") align 8 %event_engine_, ptr %1, i32 %3)
  ret void
}

; Function Attrs: mustprogress uwtable
define void @_ZN9grpc_core21GrpcServerAuthzFilterC2ENS_13RefCountedPtrI17grpc_auth_contextEEP13grpc_endpointNS1_I34grpc_authorization_policy_providerEE(ptr noundef nonnull align 8 dereferenceable(504) %this, ptr noundef %auth_context, ptr noundef %endpoint, ptr noundef %provider) unnamed_addr #4 align 2 personality ptr @__gxx_personality_v0 {
entry:
  %this.addr = alloca ptr, align 8
  %auth_context.indirect_addr = alloca ptr, align 8
  %endpoint.addr = alloca ptr, align 8
  %provider.indirect_addr = alloca ptr, align 8
  %exn.slot = alloca ptr, align 8
  %ehselector.slot = alloca i32, align 4
  store ptr %this, ptr %this.addr, align 8
  store ptr %auth_context, ptr %auth_context.indirect_addr, align 8
  store ptr %endpoint, ptr %endpoint.addr, align 8
  store ptr %provider, ptr %provider.indirect_addr, align 8
  %this1 = load ptr, ptr %this.addr, align 8
  call void @_ZN9grpc_core13ChannelFilterC2Ev(ptr noundef nonnull align 8 dereferenceable(24) %this1)
  store ptr getelementptr inbounds ({ [8 x ptr] }, ptr @_ZTVN9grpc_core21GrpcServerAuthzFilterE, i32 0, i32 0, i32 2), ptr %this1, align 8
  %auth_context_ = getelementptr inbounds %"class.grpc_core::GrpcServerAuthzFilter", ptr %this1, i32 0, i32 1
  call void @_ZN9grpc_core13RefCountedPtrI17grpc_auth_contextEC2EOS2_(ptr noundef nonnull align 8 dereferenceable(8) %auth_context_, ptr noundef nonnull align 8 dereferenceable(8) %auth_context) #3
  %per_channel_evaluate_args_ = getelementptr inbounds %"class.grpc_core::GrpcServerAuthzFilter", ptr %this1, i32 0, i32 2
  %auth_context_2 = getelementptr inbounds %"class.grpc_core::GrpcServerAuthzFilter", ptr %this1, i32 0, i32 1
  %call = invoke noundef ptr @_ZNK9grpc_core13RefCountedPtrI17grpc_auth_contextE3getEv(ptr noundef nonnull align 8 dereferenceable(8) %auth_context_2)
          to label %invoke.cont unwind label %lpad

invoke.cont:                                      ; preds = %entry
  %0 = load ptr, ptr %endpoint.addr, align 8
  invoke void @_ZN9grpc_core12EvaluateArgs14PerChannelArgsC1EP17grpc_auth_contextP13grpc_endpoint(ptr noundef nonnull align 8 dereferenceable(464) %per_channel_evaluate_args_, ptr noundef %call, ptr noundef %0)
          to label %invoke.cont3 unwind label %lpad

invoke.cont3:                                     ; preds = %invoke.cont
  %provider_ = getelementptr inbounds %"class.grpc_core::GrpcServerAuthzFilter", ptr %this1, i32 0, i32 3
  call void @_ZN9grpc_core13RefCountedPtrI34grpc_authorization_policy_providerEC2EOS2_(ptr noundef nonnull align 8 dereferenceable(8) %provider_, ptr noundef nonnull align 8 dereferenceable(8) %provider) #3
  ret void

lpad:                                             ; preds = %invoke.cont, %entry
  %1 = landingpad { ptr, i32 }
          cleanup
  %2 = extractvalue { ptr, i32 } %1, 0
  store ptr %2, ptr %exn.slot, align 8
  %3 = extractvalue { ptr, i32 } %1, 1
  store i32 %3, ptr %ehselector.slot, align 4
  call void @_ZN9grpc_core13RefCountedPtrI17grpc_auth_contextED2Ev(ptr noundef nonnull align 8 dereferenceable(8) %auth_context_) #3
  call void @_ZN9grpc_core13ChannelFilterD2Ev(ptr noundef nonnull align 8 dereferenceable(24) %this1) #3
  br label %eh.resume

eh.resume:                                        ; preds = %lpad
  %exn = load ptr, ptr %exn.slot, align 8
  %sel = load i32, ptr %ehselector.slot, align 4
  %lpad.val = insertvalue { ptr, i32 } poison, ptr %exn, 0
  %lpad.val4 = insertvalue { ptr, i32 } %lpad.val, i32 %sel, 1
  resume { ptr, i32 } %lpad.val4
}