; Function Attrs: mustprogress uwtable
define void @_ZN9grpc_core21GrpcServerAuthzFilterC2ENS_13RefCountedPtrI17grpc_auth_contextEEP13grpc_endpointNS1_I34grpc_authorization_policy_providerEE(ptr noundef nonnull align 8 dereferenceable(504) %this, ptr nocapture noundef %auth_context, ptr noundef %endpoint, ptr nocapture noundef %provider) unnamed_addr #3 align 2 personality ptr @__gxx_personality_v0 {
entry:
  store ptr getelementptr inbounds ({ [8 x ptr] }, ptr @_ZTVN9grpc_core13ChannelFilterE, i64 0, i32 0, i64 2), ptr %this, align 8
  %event_engine_.i = getelementptr inbounds i8, ptr %this, i64 8
  tail call void @_ZN17grpc_event_engine12experimental21GetDefaultEventEngineEN9grpc_core14SourceLocationE(ptr nonnull sret(%"class.std::shared_ptr") align 8 %event_engine_.i, ptr nonnull @.str.13, i32 76)
  store ptr getelementptr inbounds ({ [8 x ptr] }, ptr @_ZTVN9grpc_core21GrpcServerAuthzFilterE, i64 0, i32 0, i64 2), ptr %this, align 8
  %auth_context_ = getelementptr inbounds i8, ptr %this, i64 24
  store ptr null, ptr %auth_context_, align 8
  %0 = load ptr, ptr %auth_context, align 8
  store ptr %0, ptr %auth_context_, align 8
  store ptr null, ptr %auth_context, align 8
  %per_channel_evaluate_args_ = getelementptr inbounds i8, ptr %this, i64 32
  %1 = load ptr, ptr %auth_context_, align 8
  invoke void @_ZN9grpc_core12EvaluateArgs14PerChannelArgsC1EP17grpc_auth_contextP13grpc_endpoint(ptr noundef nonnull align 8 dereferenceable(464) %per_channel_evaluate_args_, ptr noundef %1, ptr noundef %endpoint)
          to label %invoke.cont3 unwind label %lpad

invoke.cont3:                                     ; preds = %entry
  %provider_ = getelementptr inbounds i8, ptr %this, i64 496
  store ptr null, ptr %provider_, align 8
  %2 = load ptr, ptr %provider, align 8
  store ptr %2, ptr %provider_, align 8
  store ptr null, ptr %provider, align 8
  ret void

lpad:                                             ; preds = %entry
  %3 = landingpad { ptr, i32 }
          cleanup
  tail call void @_ZN9grpc_core13RefCountedPtrI17grpc_auth_contextED2Ev(ptr noundef nonnull align 8 dereferenceable(8) %auth_context_) #19
  tail call void @_ZN9grpc_core13ChannelFilterD2Ev(ptr noundef nonnull align 8 dereferenceable(24) %this) #19
  resume { ptr, i32 } %3
}